target datalayout = "e-m:e-p270:32:32-p271:32:32-p272:64:64-i64:64-i128:128-f80:128-n8:16:32:64-S128"
target triple = "x86_64-pc-linux-gnu"

%"class.llvm::Triple" = type { %"class.std::__cxx11::basic_string", i32, i32, i32, i32, i32, i32 }
%"class.std::__cxx11::basic_string" = type { %"struct.std::__cxx11::basic_string<char>::_Alloc_hider", i64, %union.anon }
%"struct.std::__cxx11::basic_string<char>::_Alloc_hider" = type { ptr }
%union.anon = type { i64, [8 x i8] }
%"class.llvm::VersionTuple" = type { i64, i64 }

; Function Attrs: mustprogress nounwind uwtable
define linkonce_odr hidden noundef i32 @_ZNK4llvm6Triple10getSubArchEv(ptr noundef nonnull align 8 dereferenceable(56) %0) #0 comdat align 2 {
  %2 = alloca ptr, align 8
  store ptr %0, ptr %2, align 8
  %3 = load ptr, ptr %2, align 8
  %4 = getelementptr inbounds nuw %"class.llvm::Triple", ptr %3, i32 0, i32 2
  %5 = load i32, ptr %4, align 4
  ret i32 %5
}

; Function Attrs: mustprogress nounwind uwtable
define linkonce_odr hidden noundef i32 @_ZNK4llvm6Triple14getEnvironmentEv(ptr noundef nonnull align 8 dereferenceable(56) %0) #0 comdat align 2 {
  %2 = alloca ptr, align 8
  store ptr %0, ptr %2, align 8
  %3 = load ptr, ptr %2, align 8
  %4 = getelementptr inbounds nuw %"class.llvm::Triple", ptr %3, i32 0, i32 5
  %5 = load i32, ptr %4, align 8
  ret i32 %5
}

; Function Attrs: mustprogress nounwind uwtable
define linkonce_odr hidden noundef zeroext i1 @_ZNK4llvm6Triple8isArm64eEv(ptr noundef nonnull align 8 dereferenceable(56) %0) #0 comdat align 2 {
  %2 = alloca ptr, align 8
  store ptr %0, ptr %2, align 8
  %3 = load ptr, ptr %2, align 8
  %4 = call noundef i32 @_ZNK4llvm6Triple7getArchEv(ptr noundef nonnull align 8 dereferenceable(56) %3)
  %5 = icmp eq i32 %4, 3
  br i1 %5, label %6, label %9

6:                                                ; preds = %1
  %7 = call noundef i32 @_ZNK4llvm6Triple10getSubArchEv(ptr noundef nonnull align 8 dereferenceable(56) %3)
  %8 = icmp eq i32 %7, 34
  br label %9

9:                                                ; preds = %6, %1
  %10 = phi i1 [ false, %1 ], [ %8, %6 ]
  ret i1 %10
}

; Function Attrs: mustprogress nounwind uwtable
define linkonce_odr hidden noundef zeroext i1 @_ZNK4llvm6Triple22isSimulatorEnvironmentEv(ptr noundef nonnull align 8 dereferenceable(56) %0) #0 comdat align 2 {
  %2 = alloca ptr, align 8
  store ptr %0, ptr %2, align 8
  %3 = load ptr, ptr %2, align 8
  %4 = call noundef i32 @_ZNK4llvm6Triple14getEnvironmentEv(ptr noundef nonnull align 8 dereferenceable(56) %3)
  %5 = icmp eq i32 %4, 23
  ret i1 %5
}

; Function Attrs: mustprogress nounwind uwtable
define linkonce_odr hidden noundef zeroext i1 @_ZNK4llvm6Triple24isMacCatalystEnvironmentEv(ptr noundef nonnull align 8 dereferenceable(56) %0) #0 comdat align 2 {
  %2 = alloca ptr, align 8
  store ptr %0, ptr %2, align 8
  %3 = load ptr, ptr %2, align 8
  %4 = call noundef i32 @_ZNK4llvm6Triple14getEnvironmentEv(ptr noundef nonnull align 8 dereferenceable(56) %3)
  %5 = icmp eq i32 %4, 24
  ret i1 %5
}

; Function Attrs: mustprogress nounwind uwtable
define linkonce_odr hidden void @_ZN4llvm12VersionTupleC2Ejjj(ptr noundef nonnull align 4 dereferenceable(16) %0, i32 noundef %1, i32 noundef %2, i32 noundef %3) unnamed_addr #0 comdat align 2 {
  %5 = alloca ptr, align 8
  %6 = alloca i32, align 4
  %7 = alloca i32, align 4
  %8 = alloca i32, align 4
  store ptr %0, ptr %5, align 8
  store i32 %1, ptr %6, align 4
  store i32 %2, ptr %7, align 4
  store i32 %3, ptr %8, align 4
  %9 = load ptr, ptr %5, align 8
  %10 = load i32, ptr %6, align 4
  %11 = zext i32 %10 to i64
  %12 = load i64, ptr %9, align 4
  %13 = and i64 %11, 4294967295
  %14 = and i64 %12, -4294967296
  %15 = or i64 %14, %13
  store i64 %15, ptr %9, align 4
  %16 = load i32, ptr %7, align 4
  %17 = zext i32 %16 to i64
  %18 = load i64, ptr %9, align 4
  %19 = and i64 %17, 2147483647
  %20 = shl i64 %19, 32
  %21 = and i64 %18, -9223372032559808513
  %22 = or i64 %21, %20
  store i64 %22, ptr %9, align 4
  %23 = load i64, ptr %9, align 4
  %24 = and i64 %23, 9223372036854775807
  %25 = or i64 %24, -9223372036854775808
  store i64 %25, ptr %9, align 4
  %26 = getelementptr inbounds nuw %"class.llvm::VersionTuple", ptr %9, i32 0, i32 1
  %27 = load i32, ptr %8, align 4
  %28 = zext i32 %27 to i64
  %29 = load i64, ptr %26, align 4
  %30 = and i64 %28, 2147483647
  %31 = and i64 %29, -2147483648
  %32 = or i64 %31, %30
  store i64 %32, ptr %26, align 4
  %33 = getelementptr inbounds nuw %"class.llvm::VersionTuple", ptr %9, i32 0, i32 1
  %34 = load i64, ptr %33, align 4
  %35 = and i64 %34, -2147483649
  %36 = or i64 %35, 2147483648
  store i64 %36, ptr %33, align 4
  %37 = getelementptr inbounds nuw %"class.llvm::VersionTuple", ptr %9, i32 0, i32 1
  %38 = load i64, ptr %37, align 4
  %39 = and i64 %38, -9223372032559808513
  %40 = or i64 %39, 0
  store i64 %40, ptr %37, align 4
  %41 = getelementptr inbounds nuw %"class.llvm::VersionTuple", ptr %9, i32 0, i32 1
  %42 = load i64, ptr %41, align 4
  %43 = and i64 %42, 9223372036854775807
  %44 = or i64 %43, 0
  store i64 %44, ptr %41, align 4
  ret void
}

; Function Attrs: mustprogress nounwind uwtable
define linkonce_odr hidden noundef i32 @_ZNK4llvm6Triple5getOSEv(ptr noundef nonnull align 8 dereferenceable(56) %0) #0 comdat align 2 {
  %2 = alloca ptr, align 8
  store ptr %0, ptr %2, align 8
  %3 = load ptr, ptr %2, align 8
  %4 = getelementptr inbounds nuw %"class.llvm::Triple", ptr %3, i32 0, i32 4
  %5 = load i32, ptr %4, align 4
  ret i32 %5
}

; Function Attrs: mustprogress nounwind uwtable
define linkonce_odr hidden void @_ZN4llvm12VersionTupleC2Ev(ptr noundef nonnull align 4 dereferenceable(16) %0) unnamed_addr #0 comdat align 2 {
  %2 = alloca ptr, align 8
  store ptr %0, ptr %2, align 8
  %3 = load ptr, ptr %2, align 8
  %4 = load i64, ptr %3, align 4
  %5 = and i64 %4, -4294967296
  %6 = or i64 %5, 0
  store i64 %6, ptr %3, align 4
  %7 = load i64, ptr %3, align 4
  %8 = and i64 %7, -9223372032559808513
  %9 = or i64 %8, 0
  store i64 %9, ptr %3, align 4
  %10 = load i64, ptr %3, align 4
  %11 = and i64 %10, 9223372036854775807
  %12 = or i64 %11, 0
  store i64 %12, ptr %3, align 4
  %13 = getelementptr inbounds nuw %"class.llvm::VersionTuple", ptr %3, i32 0, i32 1
  %14 = load i64, ptr %13, align 4
  %15 = and i64 %14, -2147483648
  %16 = or i64 %15, 0
  store i64 %16, ptr %13, align 4
  %17 = getelementptr inbounds nuw %"class.llvm::VersionTuple", ptr %3, i32 0, i32 1
  %18 = load i64, ptr %17, align 4
  %19 = and i64 %18, -2147483649
  %20 = or i64 %19, 0
  store i64 %20, ptr %17, align 4
  %21 = getelementptr inbounds nuw %"class.llvm::VersionTuple", ptr %3, i32 0, i32 1
  %22 = load i64, ptr %21, align 4
  %23 = and i64 %22, -9223372032559808513
  %24 = or i64 %23, 0
  store i64 %24, ptr %21, align 4
  %25 = getelementptr inbounds nuw %"class.llvm::VersionTuple", ptr %3, i32 0, i32 1
  %26 = load i64, ptr %25, align 4
  %27 = and i64 %26, 9223372036854775807
  %28 = or i64 %27, 0
  store i64 %28, ptr %25, align 4
  ret void
}

; Function Attrs: mustprogress nounwind uwtable
define linkonce_odr hidden noundef i32 @_ZNK4llvm6Triple7getArchEv(ptr noundef nonnull align 8 dereferenceable(56) %0) #0 comdat align 2 {
  %2 = alloca ptr, align 8
  store ptr %0, ptr %2, align 8
  %3 = load ptr, ptr %2, align 8
  %4 = getelementptr inbounds nuw %"class.llvm::Triple", ptr %3, i32 0, i32 1
  %5 = load i32, ptr %4, align 8
  ret i32 %5
}

; Function Attrs: mustprogress nounwind uwtable
define linkonce_odr hidden noundef i32 @_ZNK4llvm6Triple9getVendorEv(ptr noundef nonnull align 8 dereferenceable(56) %0) #0 comdat align 2 {
  %2 = alloca ptr, align 8
  store ptr %0, ptr %2, align 8
  %3 = load ptr, ptr %2, align 8
  %4 = getelementptr inbounds nuw %"class.llvm::Triple", ptr %3, i32 0, i32 3
  %5 = load i32, ptr %4, align 8
  ret i32 %5
}

; Function Attrs: mustprogress nounwind uwtable
define dso_local { i64, i64 } @_ZNK4llvm6Triple28getMinimumSupportedOSVersionEv(ptr noundef nonnull align 8 dereferenceable(56) %0) #0 align 2 {
  %2 = alloca %"class.llvm::VersionTuple", align 4
  %3 = alloca ptr, align 8
  store ptr %0, ptr %3, align 8
  %4 = load ptr, ptr %3, align 8
  %5 = call noundef i32 @_ZNK4llvm6Triple9getVendorEv(ptr noundef nonnull align 8 dereferenceable(56) %4)
  %6 = icmp ne i32 %5, 1
  br i1 %6, label %10, label %7

7:                                                ; preds = %1
  %8 = call noundef i32 @_ZNK4llvm6Triple7getArchEv(ptr noundef nonnull align 8 dereferenceable(56) %4)
  %9 = icmp ne i32 %8, 3
  br i1 %9, label %10, label %11

10:                                               ; preds = %7, %1
  call void @_ZN4llvm12VersionTupleC2Ev(ptr noundef nonnull align 4 dereferenceable(16) %2)
  br label %34

11:                                               ; preds = %7
  %12 = call noundef i32 @_ZNK4llvm6Triple5getOSEv(ptr noundef nonnull align 8 dereferenceable(56) %4)
  switch i32 %12, label %32 [
    i32 9, label %13
    i32 5, label %14
    i32 26, label %23
    i32 27, label %27
    i32 29, label %31
  ]

13:                                               ; preds = %11
  call void @_ZN4llvm12VersionTupleC2Ejjj(ptr noundef nonnull align 4 dereferenceable(16) %2, i32 noundef 11, i32 noundef 0, i32 noundef 0)
  br label %34

14:                                               ; preds = %11
  %15 = call noundef zeroext i1 @_ZNK4llvm6Triple24isMacCatalystEnvironmentEv(ptr noundef nonnull align 8 dereferenceable(56) %4)
  br i1 %15, label %18, label %16

16:                                               ; preds = %14
  %17 = call noundef zeroext i1 @_ZNK4llvm6Triple22isSimulatorEnvironmentEv(ptr noundef nonnull align 8 dereferenceable(56) %4)
  br i1 %17, label %18, label %19

18:                                               ; preds = %16, %14
  call void @_ZN4llvm12VersionTupleC2Ejjj(ptr noundef nonnull align 4 dereferenceable(16) %2, i32 noundef 14, i32 noundef 0, i32 noundef 0)
  br label %34

19:                                               ; preds = %16
  %20 = call noundef zeroext i1 @_ZNK4llvm6Triple8isArm64eEv(ptr noundef nonnull align 8 dereferenceable(56) %4)
  br i1 %20, label %21, label %22

21:                                               ; preds = %19
  call void @_ZN4llvm12VersionTupleC2Ejjj(ptr noundef nonnull align 4 dereferenceable(16) %2, i32 noundef 14, i32 noundef 0, i32 noundef 0)
  br label %34

22:                                               ; preds = %19
  br label %33

23:                                               ; preds = %11
  %24 = call noundef zeroext i1 @_ZNK4llvm6Triple22isSimulatorEnvironmentEv(ptr noundef nonnull align 8 dereferenceable(56) %4)
  br i1 %24, label %25, label %26

25:                                               ; preds = %23
  call void @_ZN4llvm12VersionTupleC2Ejjj(ptr noundef nonnull align 4 dereferenceable(16) %2, i32 noundef 14, i32 noundef 0, i32 noundef 0)
  br label %34

26:                                               ; preds = %23
  br label %33

27:                                               ; preds = %11
  %28 = call noundef zeroext i1 @_ZNK4llvm6Triple22isSimulatorEnvironmentEv(ptr noundef nonnull align 8 dereferenceable(56) %4)
  br i1 %28, label %29, label %30

29:                                               ; preds = %27
  call void @_ZN4llvm12VersionTupleC2Ejjj(ptr noundef nonnull align 4 dereferenceable(16) %2, i32 noundef 7, i32 noundef 0, i32 noundef 0)
  br label %34

30:                                               ; preds = %27
  br label %33

31:                                               ; preds = %11
  call void @_ZN4llvm12VersionTupleC2Ejjj(ptr noundef nonnull align 4 dereferenceable(16) %2, i32 noundef 20, i32 noundef 0, i32 noundef 0)
  br label %34

32:                                               ; preds = %11
  br label %33

33:                                               ; preds = %32, %30, %26, %22
  call void @_ZN4llvm12VersionTupleC2Ev(ptr noundef nonnull align 4 dereferenceable(16) %2)
  br label %34

34:                                               ; preds = %33, %31, %29, %25, %21, %18, %13, %10
  %35 = load { i64, i64 }, ptr %2, align 4
  ret { i64, i64 } %35
}