; Function Attrs: mustprogress nofree norecurse nosync nounwind willreturn memory(argmem: read) uwtable
define dso_local { i64, i64 } @_ZNK4llvm6Triple28getMinimumSupportedOSVersionEv(ptr nocapture noundef nonnull readonly align 8 dereferenceable(56) %0) local_unnamed_addr #7 align 2 {
  %2 = getelementptr inbounds nuw i8, ptr %0, i64 40
  %3 = load i32, ptr %2, align 8
  %.not = icmp eq i32 %3, 1
  %4 = getelementptr inbounds nuw i8, ptr %0, i64 32
  %5 = load i32, ptr %4, align 8
  %.not1 = icmp eq i32 %5, 3
  %or.cond = select i1 %.not, i1 %.not1, i1 false
  br i1 %or.cond, label %6, label %25

6:                                                ; preds = %1
  %7 = getelementptr inbounds nuw i8, ptr %0, i64 44
  %8 = load i32, ptr %7, align 4
  switch i32 %8, label %24 [
    i32 9, label %25
    i32 5, label %9
    i32 26, label %15
    i32 27, label %19
    i32 29, label %23
  ]

9:                                                ; preds = %6
  %10 = getelementptr inbounds nuw i8, ptr %0, i64 48
  %11 = load i32, ptr %10, align 8
  %.off = add i32 %11, -23
  %switch = icmp ult i32 %.off, 2
  %12 = getelementptr inbounds nuw i8, ptr %0, i64 36
  %13 = load i32, ptr %12, align 4
  %14 = icmp eq i32 %13, 34
  %or.cond7 = select i1 %switch, i1 true, i1 %14
  br i1 %or.cond7, label %25, label %24

15:                                               ; preds = %6
  %16 = getelementptr inbounds nuw i8, ptr %0, i64 48
  %17 = load i32, ptr %16, align 8
  %18 = icmp eq i32 %17, 23
  br i1 %18, label %25, label %24

19:                                               ; preds = %6
  %20 = getelementptr inbounds nuw i8, ptr %0, i64 48
  %21 = load i32, ptr %20, align 8
  %22 = icmp eq i32 %21, 23
  br i1 %22, label %25, label %24

23:                                               ; preds = %6
  br label %25

24:                                               ; preds = %9, %6, %19, %15
  br label %25

25:                                               ; preds = %9, %19, %15, %6, %1, %24, %23
  %.sroa.0.0 = phi i64 [ 0, %24 ], [ -9223372036854775788, %23 ], [ 0, %1 ], [ -9223372036854775797, %6 ], [ -9223372036854775794, %15 ], [ -9223372036854775801, %19 ], [ -9223372036854775794, %9 ]
  %.sroa.9.0 = phi i64 [ 0, %24 ], [ 2147483648, %23 ], [ 0, %1 ], [ 2147483648, %6 ], [ 2147483648, %15 ], [ 2147483648, %19 ], [ 2147483648, %9 ]
  %.fca.0.insert = insertvalue { i64, i64 } poison, i64 %.sroa.0.0, 0
  %.fca.1.insert = insertvalue { i64, i64 } %.fca.0.insert, i64 %.sroa.9.0, 1
  ret { i64, i64 } %.fca.1.insert
}